target datalayout = "e-m:e-p270:32:32-p271:32:32-p272:64:64-i64:64-i128:128-f80:128-n8:16:32:64-S128"
target triple = "x86_64-pc-linux-gnu"

%"class.llvm::TargetRegisterClass" = type { ptr, ptr, ptr, %"struct.llvm::LaneBitmask", i8, i8, i8, i8, i8, ptr, ptr }
%"struct.llvm::LaneBitmask" = type { i64 }
%"class.llvm::Register" = type { i32 }
%"class.llvm::MVT" = type { i16 }

@_ZN4llvm7AArch6413GPR64RegClassE = external global %"class.llvm::TargetRegisterClass", align 8
@_ZN4llvm7AArch6413GPR32RegClassE = external global %"class.llvm::TargetRegisterClass", align 8
@_ZN4llvm7AArch6413FPR64RegClassE = external global %"class.llvm::TargetRegisterClass", align 8
@_ZN4llvm7AArch6414FPR128RegClassE = external global %"class.llvm::TargetRegisterClass", align 8

; Function Attrs: mustprogress nounwind uwtable
define linkonce_odr hidden noundef i32 @_ZNK4llvm8RegistercvjEv(ptr noundef nonnull align 4 dereferenceable(4) %0) #0 comdat align 2 {
  %2 = alloca ptr, align 8
  store ptr %0, ptr %2, align 8
  %3 = load ptr, ptr %2, align 8
  %4 = getelementptr inbounds nuw %"class.llvm::Register", ptr %3, i32 0, i32 0
  %5 = load i32, ptr %4, align 4
  ret i32 %5
}

; Function Attrs: mustprogress nounwind uwtable
define internal noundef i32 @_ZN12_GLOBAL__N_115AArch64FastISel30fastEmit_ISD_BSWAP_MVT_v2i64_rEN4llvm3MVTEj(ptr noundef nonnull align 8 dereferenceable(192) %0, i16 %1, i32 noundef %2) #0 align 2 {
  %4 = alloca i32, align 4
  %5 = alloca %"class.llvm::MVT", align 2
  %6 = alloca ptr, align 8
  %7 = alloca i32, align 4
  %8 = alloca %"class.llvm::Register", align 4
  %9 = getelementptr inbounds nuw %"class.llvm::MVT", ptr %5, i32 0, i32 0
  store i16 %1, ptr %9, align 2
  store ptr %0, ptr %6, align 8
  store i32 %2, ptr %7, align 4
  %10 = load ptr, ptr %6, align 8
  %11 = getelementptr inbounds nuw %"class.llvm::MVT", ptr %5, i32 0, i32 0
  %12 = load i16, ptr %11, align 2
  %13 = zext i16 %12 to i32
  %14 = icmp ne i32 %13, 78
  br i1 %14, label %15, label %16

15:                                               ; preds = %3
  store i32 0, ptr %4, align 4
  br label %21

16:                                               ; preds = %3
  %17 = load i32, ptr %7, align 4
  %18 = call i32 @_ZN4llvm8FastISel14fastEmitInst_rEjPKNS_19TargetRegisterClassEj(ptr noundef nonnull align 8 dereferenceable(176) %10, i32 noundef 5119, ptr noundef @_ZN4llvm7AArch6414FPR128RegClassE, i32 noundef %17)
  %19 = getelementptr inbounds nuw %"class.llvm::Register", ptr %8, i32 0, i32 0
  store i32 %18, ptr %19, align 4
  %20 = call noundef i32 @_ZNK4llvm8RegistercvjEv(ptr noundef nonnull align 4 dereferenceable(4) %8)
  store i32 %20, ptr %4, align 4
  br label %21

21:                                               ; preds = %16, %15
  %22 = load i32, ptr %4, align 4
  ret i32 %22
}

; Function Attrs: mustprogress nounwind uwtable
define internal noundef i32 @_ZN12_GLOBAL__N_115AArch64FastISel30fastEmit_ISD_BSWAP_MVT_v4i32_rEN4llvm3MVTEj(ptr noundef nonnull align 8 dereferenceable(192) %0, i16 %1, i32 noundef %2) #0 align 2 {
  %4 = alloca i32, align 4
  %5 = alloca %"class.llvm::MVT", align 2
  %6 = alloca ptr, align 8
  %7 = alloca i32, align 4
  %8 = alloca %"class.llvm::Register", align 4
  %9 = getelementptr inbounds nuw %"class.llvm::MVT", ptr %5, i32 0, i32 0
  store i16 %1, ptr %9, align 2
  store ptr %0, ptr %6, align 8
  store i32 %2, ptr %7, align 4
  %10 = load ptr, ptr %6, align 8
  %11 = getelementptr inbounds nuw %"class.llvm::MVT", ptr %5, i32 0, i32 0
  %12 = load i16, ptr %11, align 2
  %13 = zext i16 %12 to i32
  %14 = icmp ne i32 %13, 60
  br i1 %14, label %15, label %16

15:                                               ; preds = %3
  store i32 0, ptr %4, align 4
  br label %21

16:                                               ; preds = %3
  %17 = load i32, ptr %7, align 4
  %18 = call i32 @_ZN4llvm8FastISel14fastEmitInst_rEjPKNS_19TargetRegisterClassEj(ptr noundef nonnull align 8 dereferenceable(176) %10, i32 noundef 5115, ptr noundef @_ZN4llvm7AArch6414FPR128RegClassE, i32 noundef %17)
  %19 = getelementptr inbounds nuw %"class.llvm::Register", ptr %8, i32 0, i32 0
  store i32 %18, ptr %19, align 4
  %20 = call noundef i32 @_ZNK4llvm8RegistercvjEv(ptr noundef nonnull align 4 dereferenceable(4) %8)
  store i32 %20, ptr %4, align 4
  br label %21

21:                                               ; preds = %16, %15
  %22 = load i32, ptr %4, align 4
  ret i32 %22
}

; Function Attrs: mustprogress nounwind uwtable
define internal noundef i32 @_ZN12_GLOBAL__N_115AArch64FastISel30fastEmit_ISD_BSWAP_MVT_v2i32_rEN4llvm3MVTEj(ptr noundef nonnull align 8 dereferenceable(192) %0, i16 %1, i32 noundef %2) #0 align 2 {
  %4 = alloca i32, align 4
  %5 = alloca %"class.llvm::MVT", align 2
  %6 = alloca ptr, align 8
  %7 = alloca i32, align 4
  %8 = alloca %"class.llvm::Register", align 4
  %9 = getelementptr inbounds nuw %"class.llvm::MVT", ptr %5, i32 0, i32 0
  store i16 %1, ptr %9, align 2
  store ptr %0, ptr %6, align 8
  store i32 %2, ptr %7, align 4
  %10 = load ptr, ptr %6, align 8
  %11 = getelementptr inbounds nuw %"class.llvm::MVT", ptr %5, i32 0, i32 0
  %12 = load i16, ptr %11, align 2
  %13 = zext i16 %12 to i32
  %14 = icmp ne i32 %13, 58
  br i1 %14, label %15, label %16

15:                                               ; preds = %3
  store i32 0, ptr %4, align 4
  br label %21

16:                                               ; preds = %3
  %17 = load i32, ptr %7, align 4
  %18 = call i32 @_ZN4llvm8FastISel14fastEmitInst_rEjPKNS_19TargetRegisterClassEj(ptr noundef nonnull align 8 dereferenceable(176) %10, i32 noundef 5118, ptr noundef @_ZN4llvm7AArch6413FPR64RegClassE, i32 noundef %17)
  %19 = getelementptr inbounds nuw %"class.llvm::Register", ptr %8, i32 0, i32 0
  store i32 %18, ptr %19, align 4
  %20 = call noundef i32 @_ZNK4llvm8RegistercvjEv(ptr noundef nonnull align 4 dereferenceable(4) %8)
  store i32 %20, ptr %4, align 4
  br label %21

21:                                               ; preds = %16, %15
  %22 = load i32, ptr %4, align 4
  ret i32 %22
}

; Function Attrs: mustprogress nounwind uwtable
define internal noundef i32 @_ZN12_GLOBAL__N_115AArch64FastISel30fastEmit_ISD_BSWAP_MVT_v8i16_rEN4llvm3MVTEj(ptr noundef nonnull align 8 dereferenceable(192) %0, i16 %1, i32 noundef %2) #0 align 2 {
  %4 = alloca i32, align 4
  %5 = alloca %"class.llvm::MVT", align 2
  %6 = alloca ptr, align 8
  %7 = alloca i32, align 4
  %8 = alloca %"class.llvm::Register", align 4
  %9 = getelementptr inbounds nuw %"class.llvm::MVT", ptr %5, i32 0, i32 0
  store i16 %1, ptr %9, align 2
  store ptr %0, ptr %6, align 8
  store i32 %2, ptr %7, align 4
  %10 = load ptr, ptr %6, align 8
  %11 = getelementptr inbounds nuw %"class.llvm::MVT", ptr %5, i32 0, i32 0
  %12 = load i16, ptr %11, align 2
  %13 = zext i16 %12 to i32
  %14 = icmp ne i32 %13, 50
  br i1 %14, label %15, label %16

15:                                               ; preds = %3
  store i32 0, ptr %4, align 4
  br label %21

16:                                               ; preds = %3
  %17 = load i32, ptr %7, align 4
  %18 = call i32 @_ZN4llvm8FastISel14fastEmitInst_rEjPKNS_19TargetRegisterClassEj(ptr noundef nonnull align 8 dereferenceable(176) %10, i32 noundef 5112, ptr noundef @_ZN4llvm7AArch6414FPR128RegClassE, i32 noundef %17)
  %19 = getelementptr inbounds nuw %"class.llvm::Register", ptr %8, i32 0, i32 0
  store i32 %18, ptr %19, align 4
  %20 = call noundef i32 @_ZNK4llvm8RegistercvjEv(ptr noundef nonnull align 4 dereferenceable(4) %8)
  store i32 %20, ptr %4, align 4
  br label %21

21:                                               ; preds = %16, %15
  %22 = load i32, ptr %4, align 4
  ret i32 %22
}

; Function Attrs: mustprogress nounwind uwtable
define internal noundef i32 @_ZN12_GLOBAL__N_115AArch64FastISel30fastEmit_ISD_BSWAP_MVT_v4i16_rEN4llvm3MVTEj(ptr noundef nonnull align 8 dereferenceable(192) %0, i16 %1, i32 noundef %2) #0 align 2 {
  %4 = alloca i32, align 4
  %5 = alloca %"class.llvm::MVT", align 2
  %6 = alloca ptr, align 8
  %7 = alloca i32, align 4
  %8 = alloca %"class.llvm::Register", align 4
  %9 = getelementptr inbounds nuw %"class.llvm::MVT", ptr %5, i32 0, i32 0
  store i16 %1, ptr %9, align 2
  store ptr %0, ptr %6, align 8
  store i32 %2, ptr %7, align 4
  %10 = load ptr, ptr %6, align 8
  %11 = getelementptr inbounds nuw %"class.llvm::MVT", ptr %5, i32 0, i32 0
  %12 = load i16, ptr %11, align 2
  %13 = zext i16 %12 to i32
  %14 = icmp ne i32 %13, 49
  br i1 %14, label %15, label %16

15:                                               ; preds = %3
  store i32 0, ptr %4, align 4
  br label %21

16:                                               ; preds = %3
  %17 = load i32, ptr %7, align 4
  %18 = call i32 @_ZN4llvm8FastISel14fastEmitInst_rEjPKNS_19TargetRegisterClassEj(ptr noundef nonnull align 8 dereferenceable(176) %10, i32 noundef 5113, ptr noundef @_ZN4llvm7AArch6413FPR64RegClassE, i32 noundef %17)
  %19 = getelementptr inbounds nuw %"class.llvm::Register", ptr %8, i32 0, i32 0
  store i32 %18, ptr %19, align 4
  %20 = call noundef i32 @_ZNK4llvm8RegistercvjEv(ptr noundef nonnull align 4 dereferenceable(4) %8)
  store i32 %20, ptr %4, align 4
  br label %21

21:                                               ; preds = %16, %15
  %22 = load i32, ptr %4, align 4
  ret i32 %22
}

; Function Attrs: mustprogress nounwind uwtable
define internal noundef i32 @_ZN12_GLOBAL__N_115AArch64FastISel28fastEmit_ISD_BSWAP_MVT_i64_rEN4llvm3MVTEj(ptr noundef nonnull align 8 dereferenceable(192) %0, i16 %1, i32 noundef %2) #0 align 2 {
  %4 = alloca i32, align 4
  %5 = alloca %"class.llvm::MVT", align 2
  %6 = alloca ptr, align 8
  %7 = alloca i32, align 4
  %8 = alloca %"class.llvm::Register", align 4
  %9 = getelementptr inbounds nuw %"class.llvm::MVT", ptr %5, i32 0, i32 0
  store i16 %1, ptr %9, align 2
  store ptr %0, ptr %6, align 8
  store i32 %2, ptr %7, align 4
  %10 = load ptr, ptr %6, align 8
  %11 = getelementptr inbounds nuw %"class.llvm::MVT", ptr %5, i32 0, i32 0
  %12 = load i16, ptr %11, align 2
  %13 = zext i16 %12 to i32
  %14 = icmp ne i32 %13, 8
  br i1 %14, label %15, label %16

15:                                               ; preds = %3
  store i32 0, ptr %4, align 4
  br label %21

16:                                               ; preds = %3
  %17 = load i32, ptr %7, align 4
  %18 = call i32 @_ZN4llvm8FastISel14fastEmitInst_rEjPKNS_19TargetRegisterClassEj(ptr noundef nonnull align 8 dereferenceable(176) %10, i32 noundef 5133, ptr noundef @_ZN4llvm7AArch6413GPR64RegClassE, i32 noundef %17)
  %19 = getelementptr inbounds nuw %"class.llvm::Register", ptr %8, i32 0, i32 0
  store i32 %18, ptr %19, align 4
  %20 = call noundef i32 @_ZNK4llvm8RegistercvjEv(ptr noundef nonnull align 4 dereferenceable(4) %8)
  store i32 %20, ptr %4, align 4
  br label %21

21:                                               ; preds = %16, %15
  %22 = load i32, ptr %4, align 4
  ret i32 %22
}

; Function Attrs: mustprogress nounwind uwtable
define internal noundef i32 @_ZN12_GLOBAL__N_115AArch64FastISel28fastEmit_ISD_BSWAP_MVT_i32_rEN4llvm3MVTEj(ptr noundef nonnull align 8 dereferenceable(192) %0, i16 %1, i32 noundef %2) #0 align 2 {
  %4 = alloca i32, align 4
  %5 = alloca %"class.llvm::MVT", align 2
  %6 = alloca ptr, align 8
  %7 = alloca i32, align 4
  %8 = alloca %"class.llvm::Register", align 4
  %9 = getelementptr inbounds nuw %"class.llvm::MVT", ptr %5, i32 0, i32 0
  store i16 %1, ptr %9, align 2
  store ptr %0, ptr %6, align 8
  store i32 %2, ptr %7, align 4
  %10 = load ptr, ptr %6, align 8
  %11 = getelementptr inbounds nuw %"class.llvm::MVT", ptr %5, i32 0, i32 0
  %12 = load i16, ptr %11, align 2
  %13 = zext i16 %12 to i32
  %14 = icmp ne i32 %13, 7
  br i1 %14, label %15, label %16

15:                                               ; preds = %3
  store i32 0, ptr %4, align 4
  br label %21

16:                                               ; preds = %3
  %17 = load i32, ptr %7, align 4
  %18 = call i32 @_ZN4llvm8FastISel14fastEmitInst_rEjPKNS_19TargetRegisterClassEj(ptr noundef nonnull align 8 dereferenceable(176) %10, i32 noundef 5132, ptr noundef @_ZN4llvm7AArch6413GPR32RegClassE, i32 noundef %17)
  %19 = getelementptr inbounds nuw %"class.llvm::Register", ptr %8, i32 0, i32 0
  store i32 %18, ptr %19, align 4
  %20 = call noundef i32 @_ZNK4llvm8RegistercvjEv(ptr noundef nonnull align 4 dereferenceable(4) %8)
  store i32 %20, ptr %4, align 4
  br label %21

21:                                               ; preds = %16, %15
  %22 = load i32, ptr %4, align 4
  ret i32 %22
}

; Function Attrs: mustprogress nounwind uwtable
define internal noundef i32 @_ZN12_GLOBAL__N_115AArch64FastISel20fastEmit_ISD_BSWAP_rEN4llvm3MVTES2_j(ptr noundef nonnull align 8 dereferenceable(192) %0, i16 %1, i16 %2, i32 noundef %3) #0 align 2 {
  %5 = alloca i32, align 4
  %6 = alloca %"class.llvm::MVT", align 2
  %7 = alloca %"class.llvm::MVT", align 2
  %8 = alloca ptr, align 8
  %9 = alloca i32, align 4
  %10 = alloca %"class.llvm::MVT", align 2
  %11 = alloca %"class.llvm::MVT", align 2
  %12 = alloca %"class.llvm::MVT", align 2
  %13 = alloca %"class.llvm::MVT", align 2
  %14 = alloca %"class.llvm::MVT", align 2
  %15 = alloca %"class.llvm::MVT", align 2
  %16 = alloca %"class.llvm::MVT", align 2
  %17 = getelementptr inbounds nuw %"class.llvm::MVT", ptr %6, i32 0, i32 0
  store i16 %1, ptr %17, align 2
  %18 = getelementptr inbounds nuw %"class.llvm::MVT", ptr %7, i32 0, i32 0
  store i16 %2, ptr %18, align 2
  store ptr %0, ptr %8, align 8
  store i32 %3, ptr %9, align 4
  %19 = load ptr, ptr %8, align 8
  %20 = getelementptr inbounds nuw %"class.llvm::MVT", ptr %6, i32 0, i32 0
  %21 = load i16, ptr %20, align 2
  %22 = zext i16 %21 to i32
  switch i32 %22, label %58 [
    i32 7, label %23
    i32 8, label %28
    i32 49, label %33
    i32 50, label %38
    i32 58, label %43
    i32 60, label %48
    i32 78, label %53
  ]

23:                                               ; preds = %4
  call void @llvm.memcpy.p0.p0.i64(ptr align 2 %10, ptr align 2 %7, i64 2, i1 false)
  %24 = load i32, ptr %9, align 4
  %25 = getelementptr inbounds nuw %"class.llvm::MVT", ptr %10, i32 0, i32 0
  %26 = load i16, ptr %25, align 2
  %27 = call noundef i32 @_ZN12_GLOBAL__N_115AArch64FastISel28fastEmit_ISD_BSWAP_MVT_i32_rEN4llvm3MVTEj(ptr noundef nonnull align 8 dereferenceable(192) %19, i16 %26, i32 noundef %24)
  store i32 %27, ptr %5, align 4
  br label %59

28:                                               ; preds = %4
  call void @llvm.memcpy.p0.p0.i64(ptr align 2 %11, ptr align 2 %7, i64 2, i1 false)
  %29 = load i32, ptr %9, align 4
  %30 = getelementptr inbounds nuw %"class.llvm::MVT", ptr %11, i32 0, i32 0
  %31 = load i16, ptr %30, align 2
  %32 = call noundef i32 @_ZN12_GLOBAL__N_115AArch64FastISel28fastEmit_ISD_BSWAP_MVT_i64_rEN4llvm3MVTEj(ptr noundef nonnull align 8 dereferenceable(192) %19, i16 %31, i32 noundef %29)
  store i32 %32, ptr %5, align 4
  br label %59

33:                                               ; preds = %4
  call void @llvm.memcpy.p0.p0.i64(ptr align 2 %12, ptr align 2 %7, i64 2, i1 false)
  %34 = load i32, ptr %9, align 4
  %35 = getelementptr inbounds nuw %"class.llvm::MVT", ptr %12, i32 0, i32 0
  %36 = load i16, ptr %35, align 2
  %37 = call noundef i32 @_ZN12_GLOBAL__N_115AArch64FastISel30fastEmit_ISD_BSWAP_MVT_v4i16_rEN4llvm3MVTEj(ptr noundef nonnull align 8 dereferenceable(192) %19, i16 %36, i32 noundef %34)
  store i32 %37, ptr %5, align 4
  br label %59

38:                                               ; preds = %4
  call void @llvm.memcpy.p0.p0.i64(ptr align 2 %13, ptr align 2 %7, i64 2, i1 false)
  %39 = load i32, ptr %9, align 4
  %40 = getelementptr inbounds nuw %"class.llvm::MVT", ptr %13, i32 0, i32 0
  %41 = load i16, ptr %40, align 2
  %42 = call noundef i32 @_ZN12_GLOBAL__N_115AArch64FastISel30fastEmit_ISD_BSWAP_MVT_v8i16_rEN4llvm3MVTEj(ptr noundef nonnull align 8 dereferenceable(192) %19, i16 %41, i32 noundef %39)
  store i32 %42, ptr %5, align 4
  br label %59

43:                                               ; preds = %4
  call void @llvm.memcpy.p0.p0.i64(ptr align 2 %14, ptr align 2 %7, i64 2, i1 false)
  %44 = load i32, ptr %9, align 4
  %45 = getelementptr inbounds nuw %"class.llvm::MVT", ptr %14, i32 0, i32 0
  %46 = load i16, ptr %45, align 2
  %47 = call noundef i32 @_ZN12_GLOBAL__N_115AArch64FastISel30fastEmit_ISD_BSWAP_MVT_v2i32_rEN4llvm3MVTEj(ptr noundef nonnull align 8 dereferenceable(192) %19, i16 %46, i32 noundef %44)
  store i32 %47, ptr %5, align 4
  br label %59

48:                                               ; preds = %4
  call void @llvm.memcpy.p0.p0.i64(ptr align 2 %15, ptr align 2 %7, i64 2, i1 false)
  %49 = load i32, ptr %9, align 4
  %50 = getelementptr inbounds nuw %"class.llvm::MVT", ptr %15, i32 0, i32 0
  %51 = load i16, ptr %50, align 2
  %52 = call noundef i32 @_ZN12_GLOBAL__N_115AArch64FastISel30fastEmit_ISD_BSWAP_MVT_v4i32_rEN4llvm3MVTEj(ptr noundef nonnull align 8 dereferenceable(192) %19, i16 %51, i32 noundef %49)
  store i32 %52, ptr %5, align 4
  br label %59

53:                                               ; preds = %4
  call void @llvm.memcpy.p0.p0.i64(ptr align 2 %16, ptr align 2 %7, i64 2, i1 false)
  %54 = load i32, ptr %9, align 4
  %55 = getelementptr inbounds nuw %"class.llvm::MVT", ptr %16, i32 0, i32 0
  %56 = load i16, ptr %55, align 2
  %57 = call noundef i32 @_ZN12_GLOBAL__N_115AArch64FastISel30fastEmit_ISD_BSWAP_MVT_v2i64_rEN4llvm3MVTEj(ptr noundef nonnull align 8 dereferenceable(192) %19, i16 %56, i32 noundef %54)
  store i32 %57, ptr %5, align 4
  br label %59

58:                                               ; preds = %4
  store i32 0, ptr %5, align 4
  br label %59

59:                                               ; preds = %58, %53, %48, %43, %38, %33, %28, %23
  %60 = load i32, ptr %5, align 4
  ret i32 %60
}