; Function Attrs: mustprogress nounwind uwtable
define internal fastcc noundef i32 @_ZN12_GLOBAL__N_115AArch64FastISel20fastEmit_ISD_BSWAP_rEN4llvm3MVTES2_j(ptr noundef nonnull align 8 dereferenceable(192) %0, i16 %1, i16 %2, i32 noundef %3) unnamed_addr #0 align 2 {
  switch i16 %1, label %_ZN12_GLOBAL__N_115AArch64FastISel28fastEmit_ISD_BSWAP_MVT_i32_rEN4llvm3MVTEj.exit [
    i16 7, label %5
    i16 8, label %8
    i16 49, label %11
    i16 50, label %14
    i16 58, label %17
    i16 60, label %20
    i16 78, label %23
  ]

5:                                                ; preds = %4
  %.not.i = icmp eq i16 %2, 7
  br i1 %.not.i, label %6, label %_ZN12_GLOBAL__N_115AArch64FastISel28fastEmit_ISD_BSWAP_MVT_i32_rEN4llvm3MVTEj.exit

6:                                                ; preds = %5
  %7 = tail call i32 @_ZN4llvm8FastISel14fastEmitInst_rEjPKNS_19TargetRegisterClassEj(ptr noundef nonnull align 8 dereferenceable(192) %0, i32 noundef 5132, ptr noundef nonnull @_ZN4llvm7AArch6413GPR32RegClassE, i32 noundef %3) #21
  br label %_ZN12_GLOBAL__N_115AArch64FastISel28fastEmit_ISD_BSWAP_MVT_i32_rEN4llvm3MVTEj.exit

8:                                                ; preds = %4
  %.not.i22 = icmp eq i16 %2, 8
  br i1 %.not.i22, label %9, label %_ZN12_GLOBAL__N_115AArch64FastISel28fastEmit_ISD_BSWAP_MVT_i32_rEN4llvm3MVTEj.exit

9:                                                ; preds = %8
  %10 = tail call i32 @_ZN4llvm8FastISel14fastEmitInst_rEjPKNS_19TargetRegisterClassEj(ptr noundef nonnull align 8 dereferenceable(192) %0, i32 noundef 5133, ptr noundef nonnull @_ZN4llvm7AArch6413GPR64RegClassE, i32 noundef %3) #21
  br label %_ZN12_GLOBAL__N_115AArch64FastISel28fastEmit_ISD_BSWAP_MVT_i32_rEN4llvm3MVTEj.exit

11:                                               ; preds = %4
  %.not.i24 = icmp eq i16 %2, 49
  br i1 %.not.i24, label %12, label %_ZN12_GLOBAL__N_115AArch64FastISel28fastEmit_ISD_BSWAP_MVT_i32_rEN4llvm3MVTEj.exit

12:                                               ; preds = %11
  %13 = tail call i32 @_ZN4llvm8FastISel14fastEmitInst_rEjPKNS_19TargetRegisterClassEj(ptr noundef nonnull align 8 dereferenceable(192) %0, i32 noundef 5113, ptr noundef nonnull @_ZN4llvm7AArch6413FPR64RegClassE, i32 noundef %3) #21
  br label %_ZN12_GLOBAL__N_115AArch64FastISel28fastEmit_ISD_BSWAP_MVT_i32_rEN4llvm3MVTEj.exit

14:                                               ; preds = %4
  %.not.i26 = icmp eq i16 %2, 50
  br i1 %.not.i26, label %15, label %_ZN12_GLOBAL__N_115AArch64FastISel28fastEmit_ISD_BSWAP_MVT_i32_rEN4llvm3MVTEj.exit

15:                                               ; preds = %14
  %16 = tail call i32 @_ZN4llvm8FastISel14fastEmitInst_rEjPKNS_19TargetRegisterClassEj(ptr noundef nonnull align 8 dereferenceable(192) %0, i32 noundef 5112, ptr noundef nonnull @_ZN4llvm7AArch6414FPR128RegClassE, i32 noundef %3) #21
  br label %_ZN12_GLOBAL__N_115AArch64FastISel28fastEmit_ISD_BSWAP_MVT_i32_rEN4llvm3MVTEj.exit

17:                                               ; preds = %4
  %.not.i28 = icmp eq i16 %2, 58
  br i1 %.not.i28, label %18, label %_ZN12_GLOBAL__N_115AArch64FastISel28fastEmit_ISD_BSWAP_MVT_i32_rEN4llvm3MVTEj.exit

18:                                               ; preds = %17
  %19 = tail call i32 @_ZN4llvm8FastISel14fastEmitInst_rEjPKNS_19TargetRegisterClassEj(ptr noundef nonnull align 8 dereferenceable(192) %0, i32 noundef 5118, ptr noundef nonnull @_ZN4llvm7AArch6413FPR64RegClassE, i32 noundef %3) #21
  br label %_ZN12_GLOBAL__N_115AArch64FastISel28fastEmit_ISD_BSWAP_MVT_i32_rEN4llvm3MVTEj.exit

20:                                               ; preds = %4
  %.not.i30 = icmp eq i16 %2, 60
  br i1 %.not.i30, label %21, label %_ZN12_GLOBAL__N_115AArch64FastISel28fastEmit_ISD_BSWAP_MVT_i32_rEN4llvm3MVTEj.exit

21:                                               ; preds = %20
  %22 = tail call i32 @_ZN4llvm8FastISel14fastEmitInst_rEjPKNS_19TargetRegisterClassEj(ptr noundef nonnull align 8 dereferenceable(192) %0, i32 noundef 5115, ptr noundef nonnull @_ZN4llvm7AArch6414FPR128RegClassE, i32 noundef %3) #21
  br label %_ZN12_GLOBAL__N_115AArch64FastISel28fastEmit_ISD_BSWAP_MVT_i32_rEN4llvm3MVTEj.exit

23:                                               ; preds = %4
  %.not.i32 = icmp eq i16 %2, 78
  br i1 %.not.i32, label %24, label %_ZN12_GLOBAL__N_115AArch64FastISel28fastEmit_ISD_BSWAP_MVT_i32_rEN4llvm3MVTEj.exit

24:                                               ; preds = %23
  %25 = tail call i32 @_ZN4llvm8FastISel14fastEmitInst_rEjPKNS_19TargetRegisterClassEj(ptr noundef nonnull align 8 dereferenceable(192) %0, i32 noundef 5119, ptr noundef nonnull @_ZN4llvm7AArch6414FPR128RegClassE, i32 noundef %3) #21
  br label %_ZN12_GLOBAL__N_115AArch64FastISel28fastEmit_ISD_BSWAP_MVT_i32_rEN4llvm3MVTEj.exit

_ZN12_GLOBAL__N_115AArch64FastISel28fastEmit_ISD_BSWAP_MVT_i32_rEN4llvm3MVTEj.exit: ; preds = %24, %23, %21, %20, %18, %17, %15, %14, %12, %11, %9, %8, %6, %5, %4
  %.0 = phi i32 [ 0, %4 ], [ %7, %6 ], [ 0, %5 ], [ %10, %9 ], [ 0, %8 ], [ %13, %12 ], [ 0, %11 ], [ %16, %15 ], [ 0, %14 ], [ %19, %18 ], [ 0, %17 ], [ %22, %21 ], [ 0, %20 ], [ %25, %24 ], [ 0, %23 ]
  ret i32 %.0
}